target datalayout = "e-m:e-p270:32:32-p271:32:32-p272:64:64-i64:64-i128:128-f80:128-n8:16:32:64-S128"
target triple = "x86_64-pc-linux-gnu"

%struct.CVodeMemRec = type { ptr, double, ptr, ptr, i32, i32, double, double, ptr, i32, i32, ptr, ptr, i32, [13 x ptr], ptr, ptr, ptr, ptr, ptr, ptr, ptr, ptr, ptr, i32, i32, double, i32, i32, i32, i32, i32, double, double, double, double, double, double, double, double, [14 x double], [6 x double], [13 x double], double, double, double, double, double, double, double, i32, double, i32, i64, i32, i32, i32, double, double, double, double, double, double, double, double, double, double, double, double, i64, i32, i64, i64, i64, i64, i64, i64, i64, i32, double, double, double, i64, i64, i64, i64, ptr, i32, ptr, i32, ptr, ptr, ptr, ptr, ptr, i64, double, i32, i64, double, double, double, i32, double, i32, i32, i32, i32, i32, ptr, i64, i32, [6 x [4 x double]], i32, i64, ptr, i32, ptr, ptr, double, double, double, ptr, ptr, ptr, double, double, i32, i32, i64, ptr, i32, ptr, i32, i32, [13 x double], [13 x double], [13 x ptr], i32 }
%struct._generic_N_Vector = type { ptr, ptr, ptr }
%struct._generic_N_Vector_Ops = type { ptr, ptr, ptr, ptr, ptr, ptr, ptr, ptr, ptr, ptr, ptr, ptr, ptr, ptr, ptr, ptr, ptr, ptr, ptr, ptr, ptr, ptr, ptr, ptr, ptr, ptr, ptr, ptr, ptr, ptr, ptr, ptr, ptr, ptr, ptr, ptr, ptr, ptr, ptr, ptr, ptr, ptr, ptr, ptr, ptr, ptr, ptr, ptr, ptr, ptr, ptr, ptr, ptr, ptr, ptr, ptr }

@.str = private unnamed_addr constant [113 x i8] c"generated/home/dtcxzyw/WorkSpace/Projects/compilers/llvm-opt-benchmark/bench/sundials/sundials/src/cvode/cvode.c\00", align 1
@.str.4 = private unnamed_addr constant [26 x i8] c"cvode_mem = NULL illegal.\00", align 1
@.str.10 = private unnamed_addr constant [34 x i8] c"Attempt to call before CVodeInit.\00", align 1
@.str.11 = private unnamed_addr constant [20 x i8] c"reltol < 0 illegal.\00", align 1
@.str.12 = private unnamed_addr constant [44 x i8] c"abstol has negative component(s) (illegal).\00", align 1
@__func__.CVodeSVtolerances = private unnamed_addr constant [18 x i8] c"CVodeSVtolerances\00", align 1
@.str.13 = private unnamed_addr constant [37 x i8] c"Missing N_VMin routine from N_Vector\00", align 1

; Function Attrs: nounwind uwtable
define i32 @CVodeSVtolerances(ptr noundef %0, double noundef %1, ptr noundef %2) #0 {
  %4 = alloca i32, align 4
  %5 = alloca ptr, align 8
  %6 = alloca double, align 8
  %7 = alloca ptr, align 8
  %8 = alloca ptr, align 8
  %9 = alloca double, align 8
  %10 = alloca i32, align 4
  store ptr %0, ptr %5, align 8, !tbaa !89
  store double %1, ptr %6, align 8, !tbaa !90
  store ptr %2, ptr %7, align 8, !tbaa !91
  call void @llvm.lifetime.start.p0(i64 8, ptr %8) #10
  call void @llvm.lifetime.start.p0(i64 8, ptr %9) #10
  %11 = load ptr, ptr %5, align 8, !tbaa !89
  %12 = icmp eq ptr %11, null
  br i1 %12, label %13, label %14

13:                                               ; preds = %3
  call void (ptr, i32, i32, ptr, ptr, ptr, ...) @cvProcessError(ptr noundef null, i32 noundef -21, i32 noundef 717, ptr noundef @__func__.CVodeSVtolerances, ptr noundef @.str, ptr noundef @.str.4)
  store i32 -21, ptr %4, align 4
  store i32 1, ptr %10, align 4
  br label %92

14:                                               ; preds = %3
  %15 = load ptr, ptr %5, align 8, !tbaa !89
  store ptr %15, ptr %8, align 8, !tbaa !10
  %16 = load ptr, ptr %8, align 8, !tbaa !10
  %17 = getelementptr inbounds nuw %struct.CVodeMemRec, ptr %16, i32 0, i32 107
  %18 = load i32, ptr %17, align 4, !tbaa !76
  %19 = icmp eq i32 %18, 0
  br i1 %19, label %20, label %22

20:                                               ; preds = %14
  %21 = load ptr, ptr %8, align 8, !tbaa !10
  call void (ptr, i32, i32, ptr, ptr, ptr, ...) @cvProcessError(ptr noundef %21, i32 noundef -23, i32 noundef 724, ptr noundef @__func__.CVodeSVtolerances, ptr noundef @.str, ptr noundef @.str.10)
  store i32 -23, ptr %4, align 4
  store i32 1, ptr %10, align 4
  br label %92

22:                                               ; preds = %14
  %23 = load double, ptr %6, align 8, !tbaa !90
  %24 = fcmp olt double %23, 0.000000e+00
  br i1 %24, label %25, label %27

25:                                               ; preds = %22
  %26 = load ptr, ptr %8, align 8, !tbaa !10
  call void (ptr, i32, i32, ptr, ptr, ptr, ...) @cvProcessError(ptr noundef %26, i32 noundef -22, i32 noundef 733, ptr noundef @__func__.CVodeSVtolerances, ptr noundef @.str, ptr noundef @.str.11)
  store i32 -22, ptr %4, align 4
  store i32 1, ptr %10, align 4
  br label %92

27:                                               ; preds = %22
  %28 = load ptr, ptr %7, align 8, !tbaa !91
  %29 = getelementptr inbounds nuw %struct._generic_N_Vector, ptr %28, i32 0, i32 1
  %30 = load ptr, ptr %29, align 8, !tbaa !92
  %31 = getelementptr inbounds nuw %struct._generic_N_Vector_Ops, ptr %30, i32 0, i32 23
  %32 = load ptr, ptr %31, align 8, !tbaa !151
  %33 = icmp eq ptr %32, null
  br i1 %33, label %34, label %36

34:                                               ; preds = %27
  %35 = load ptr, ptr %8, align 8, !tbaa !10
  call void (ptr, i32, i32, ptr, ptr, ptr, ...) @cvProcessError(ptr noundef %35, i32 noundef -22, i32 noundef 740, ptr noundef @__func__.CVodeSVtolerances, ptr noundef @.str, ptr noundef @.str.13)
  store i32 -22, ptr %4, align 4
  store i32 1, ptr %10, align 4
  br label %92

36:                                               ; preds = %27
  %37 = load ptr, ptr %7, align 8, !tbaa !91
  %38 = call double @N_VMin(ptr noundef %37)
  store double %38, ptr %9, align 8, !tbaa !90
  %39 = load double, ptr %9, align 8, !tbaa !90
  %40 = fcmp olt double %39, 0.000000e+00
  br i1 %40, label %41, label %43

41:                                               ; preds = %36
  %42 = load ptr, ptr %8, align 8, !tbaa !10
  call void (ptr, i32, i32, ptr, ptr, ptr, ...) @cvProcessError(ptr noundef %42, i32 noundef -22, i32 noundef 747, ptr noundef @__func__.CVodeSVtolerances, ptr noundef @.str, ptr noundef @.str.12)
  store i32 -22, ptr %4, align 4
  store i32 1, ptr %10, align 4
  br label %92

43:                                               ; preds = %36
  %44 = load ptr, ptr %8, align 8, !tbaa !10
  %45 = getelementptr inbounds nuw %struct.CVodeMemRec, ptr %44, i32 0, i32 106
  %46 = load i32, ptr %45, align 8, !tbaa !75
  %47 = icmp ne i32 %46, 0
  br i1 %47, label %71, label %48

48:                                               ; preds = %43
  %49 = load ptr, ptr %8, align 8, !tbaa !10
  %50 = getelementptr inbounds nuw %struct.CVodeMemRec, ptr %49, i32 0, i32 15
  %51 = load ptr, ptr %50, align 8, !tbaa !141
  %52 = call ptr @N_VClone(ptr noundef %51)
  %53 = load ptr, ptr %8, align 8, !tbaa !10
  %54 = getelementptr inbounds nuw %struct.CVodeMemRec, ptr %53, i32 0, i32 8
  store ptr %52, ptr %54, align 8, !tbaa !148
  %55 = load ptr, ptr %8, align 8, !tbaa !10
  %56 = getelementptr inbounds nuw %struct.CVodeMemRec, ptr %55, i32 0, i32 82
  %57 = load i64, ptr %56, align 8, !tbaa !97
  %58 = load ptr, ptr %8, align 8, !tbaa !10
  %59 = getelementptr inbounds nuw %struct.CVodeMemRec, ptr %58, i32 0, i32 84
  %60 = load i64, ptr %59, align 8, !tbaa !73
  %61 = add nsw i64 %60, %57
  store i64 %61, ptr %59, align 8, !tbaa !73
  %62 = load ptr, ptr %8, align 8, !tbaa !10
  %63 = getelementptr inbounds nuw %struct.CVodeMemRec, ptr %62, i32 0, i32 83
  %64 = load i64, ptr %63, align 8, !tbaa !98
  %65 = load ptr, ptr %8, align 8, !tbaa !10
  %66 = getelementptr inbounds nuw %struct.CVodeMemRec, ptr %65, i32 0, i32 85
  %67 = load i64, ptr %66, align 8, !tbaa !74
  %68 = add nsw i64 %67, %64
  store i64 %68, ptr %66, align 8, !tbaa !74
  %69 = load ptr, ptr %8, align 8, !tbaa !10
  %70 = getelementptr inbounds nuw %struct.CVodeMemRec, ptr %69, i32 0, i32 106
  store i32 1, ptr %70, align 8, !tbaa !75
  br label %71

71:                                               ; preds = %48, %43
  %72 = load double, ptr %6, align 8, !tbaa !90
  %73 = load ptr, ptr %8, align 8, !tbaa !10
  %74 = getelementptr inbounds nuw %struct.CVodeMemRec, ptr %73, i32 0, i32 6
  store double %72, ptr %74, align 8, !tbaa !149
  %75 = load ptr, ptr %7, align 8, !tbaa !91
  %76 = load ptr, ptr %8, align 8, !tbaa !10
  %77 = getelementptr inbounds nuw %struct.CVodeMemRec, ptr %76, i32 0, i32 8
  %78 = load ptr, ptr %77, align 8, !tbaa !148
  call void @N_VScale(double noundef 1.000000e+00, ptr noundef %75, ptr noundef %78)
  %79 = load double, ptr %9, align 8, !tbaa !90
  %80 = fcmp oeq double %79, 0.000000e+00
  %81 = zext i1 %80 to i32
  %82 = load ptr, ptr %8, align 8, !tbaa !10
  %83 = getelementptr inbounds nuw %struct.CVodeMemRec, ptr %82, i32 0, i32 9
  store i32 %81, ptr %83, align 8, !tbaa !26
  %84 = load ptr, ptr %8, align 8, !tbaa !10
  %85 = getelementptr inbounds nuw %struct.CVodeMemRec, ptr %84, i32 0, i32 5
  store i32 2, ptr %85, align 4, !tbaa !25
  %86 = load ptr, ptr %8, align 8, !tbaa !10
  %87 = getelementptr inbounds nuw %struct.CVodeMemRec, ptr %86, i32 0, i32 10
  store i32 0, ptr %87, align 4, !tbaa !27
  %88 = load ptr, ptr %8, align 8, !tbaa !10
  %89 = getelementptr inbounds nuw %struct.CVodeMemRec, ptr %88, i32 0, i32 11
  store ptr @cvEwtSet, ptr %89, align 8, !tbaa !28
  %90 = load ptr, ptr %8, align 8, !tbaa !10
  %91 = getelementptr inbounds nuw %struct.CVodeMemRec, ptr %90, i32 0, i32 12
  store ptr null, ptr %91, align 8, !tbaa !29
  store i32 0, ptr %4, align 4
  store i32 1, ptr %10, align 4
  br label %92

92:                                               ; preds = %71, %41, %34, %25, %20, %13
  call void @llvm.lifetime.end.p0(i64 8, ptr %9) #10
  call void @llvm.lifetime.end.p0(i64 8, ptr %8) #10
  %93 = load i32, ptr %4, align 4
  ret i32 %93
}